target datalayout = "e-m:e-p270:32:32-p271:32:32-p272:64:64-i64:64-i128:128-f80:128-n8:16:32:64-S128"
target triple = "x86_64-pc-linux-gnu"

@.str.44 = private unnamed_addr constant [1 x i8] zeroinitializer, align 1
@.str.45 = private unnamed_addr constant [5 x i8] c"main\00", align 1
@.str.289 = private unnamed_addr constant [12 x i8] c" COLLATE %s\00", align 1

; Function Attrs: nounwind uwtable
define internal void @shellFkeyCollateClause(ptr noundef %0, i32 noundef %1, ptr noundef %2) #0 {
  %4 = alloca ptr, align 8
  %5 = alloca i32, align 4
  %6 = alloca ptr, align 8
  %7 = alloca ptr, align 8
  %8 = alloca ptr, align 8
  %9 = alloca ptr, align 8
  %10 = alloca ptr, align 8
  %11 = alloca ptr, align 8
  %12 = alloca ptr, align 8
  %13 = alloca ptr, align 8
  %14 = alloca i32, align 4
  %15 = alloca ptr, align 8
  store ptr %0, ptr %4, align 8, !tbaa !25
  store i32 %1, ptr %5, align 4, !tbaa !3
  store ptr %2, ptr %6, align 8, !tbaa !27
  call void @llvm.lifetime.start.p0(i64 8, ptr %7) #14
  %16 = load ptr, ptr %4, align 8, !tbaa !25
  %17 = call ptr @sqlite3_context_db_handle(ptr noundef %16)
  store ptr %17, ptr %7, align 8, !tbaa !19
  call void @llvm.lifetime.start.p0(i64 8, ptr %8) #14
  call void @llvm.lifetime.start.p0(i64 8, ptr %9) #14
  call void @llvm.lifetime.start.p0(i64 8, ptr %10) #14
  call void @llvm.lifetime.start.p0(i64 8, ptr %11) #14
  call void @llvm.lifetime.start.p0(i64 8, ptr %12) #14
  call void @llvm.lifetime.start.p0(i64 8, ptr %13) #14
  store ptr null, ptr %13, align 8, !tbaa !36
  call void @llvm.lifetime.start.p0(i64 4, ptr %14) #14
  %18 = load ptr, ptr %6, align 8, !tbaa !27
  %19 = getelementptr inbounds ptr, ptr %18, i64 0
  %20 = load ptr, ptr %19, align 8, !tbaa !29
  %21 = call ptr @sqlite3_value_text(ptr noundef %20)
  store ptr %21, ptr %8, align 8, !tbaa !36
  %22 = load ptr, ptr %6, align 8, !tbaa !27
  %23 = getelementptr inbounds ptr, ptr %22, i64 1
  %24 = load ptr, ptr %23, align 8, !tbaa !29
  %25 = call ptr @sqlite3_value_text(ptr noundef %24)
  store ptr %25, ptr %9, align 8, !tbaa !36
  %26 = load ptr, ptr %6, align 8, !tbaa !27
  %27 = getelementptr inbounds ptr, ptr %26, i64 2
  %28 = load ptr, ptr %27, align 8, !tbaa !29
  %29 = call ptr @sqlite3_value_text(ptr noundef %28)
  store ptr %29, ptr %11, align 8, !tbaa !36
  %30 = load ptr, ptr %6, align 8, !tbaa !27
  %31 = getelementptr inbounds ptr, ptr %30, i64 3
  %32 = load ptr, ptr %31, align 8, !tbaa !29
  %33 = call ptr @sqlite3_value_text(ptr noundef %32)
  store ptr %33, ptr %12, align 8, !tbaa !36
  %34 = load ptr, ptr %4, align 8, !tbaa !25
  call void @sqlite3_result_text(ptr noundef %34, ptr noundef @.str.44, i32 noundef -1, ptr noundef null)
  %35 = load ptr, ptr %7, align 8, !tbaa !19
  %36 = load ptr, ptr %8, align 8, !tbaa !36
  %37 = load ptr, ptr %9, align 8, !tbaa !36
  %38 = call i32 @sqlite3_table_column_metadata(ptr noundef %35, ptr noundef @.str.45, ptr noundef %36, ptr noundef %37, ptr noundef null, ptr noundef %10, ptr noundef null, ptr noundef null, ptr noundef null)
  store i32 %38, ptr %14, align 4, !tbaa !3
  %39 = load i32, ptr %14, align 4, !tbaa !3
  %40 = icmp eq i32 %39, 0
  br i1 %40, label %41, label %46

41:                                               ; preds = %3
  %42 = load ptr, ptr %7, align 8, !tbaa !19
  %43 = load ptr, ptr %11, align 8, !tbaa !36
  %44 = load ptr, ptr %12, align 8, !tbaa !36
  %45 = call i32 @sqlite3_table_column_metadata(ptr noundef %42, ptr noundef @.str.45, ptr noundef %43, ptr noundef %44, ptr noundef null, ptr noundef %13, ptr noundef null, ptr noundef null, ptr noundef null)
  store i32 %45, ptr %14, align 4, !tbaa !3
  br label %46

46:                                               ; preds = %41, %3
  %47 = load i32, ptr %14, align 4, !tbaa !3
  %48 = icmp eq i32 %47, 0
  br i1 %48, label %49, label %60

49:                                               ; preds = %46
  %50 = load ptr, ptr %10, align 8, !tbaa !36
  %51 = load ptr, ptr %13, align 8, !tbaa !36
  %52 = call i32 @sqlite3_stricmp(ptr noundef %50, ptr noundef %51)
  %53 = icmp ne i32 %52, 0
  br i1 %53, label %54, label %60

54:                                               ; preds = %49
  call void @llvm.lifetime.start.p0(i64 8, ptr %15) #14
  %55 = load ptr, ptr %10, align 8, !tbaa !36
  %56 = call ptr (ptr, ...) @sqlite3_mprintf(ptr noundef @.str.289, ptr noundef %55)
  store ptr %56, ptr %15, align 8, !tbaa !36
  %57 = load ptr, ptr %4, align 8, !tbaa !25
  %58 = load ptr, ptr %15, align 8, !tbaa !36
  call void @sqlite3_result_text(ptr noundef %57, ptr noundef %58, i32 noundef -1, ptr noundef inttoptr (i64 -1 to ptr))
  %59 = load ptr, ptr %15, align 8, !tbaa !36
  call void @sqlite3_free(ptr noundef %59)
  call void @llvm.lifetime.end.p0(i64 8, ptr %15) #14
  br label %60

60:                                               ; preds = %54, %49, %46
  call void @llvm.lifetime.end.p0(i64 4, ptr %14) #14
  call void @llvm.lifetime.end.p0(i64 8, ptr %13) #14
  call void @llvm.lifetime.end.p0(i64 8, ptr %12) #14
  call void @llvm.lifetime.end.p0(i64 8, ptr %11) #14
  call void @llvm.lifetime.end.p0(i64 8, ptr %10) #14
  call void @llvm.lifetime.end.p0(i64 8, ptr %9) #14
  call void @llvm.lifetime.end.p0(i64 8, ptr %8) #14
  call void @llvm.lifetime.end.p0(i64 8, ptr %7) #14
  ret void
}