; Function Attrs: nounwind uwtable
define internal void @shellFkeyCollateClause(ptr noundef %0, i32 %1, ptr noundef readonly captures(none) %2) #2 {
  %4 = alloca ptr, align 8
  %5 = alloca ptr, align 8
  %6 = tail call ptr @sqlite3_context_db_handle(ptr noundef %0) #43
  call void @llvm.lifetime.start.p0(i64 8, ptr nonnull %4) #43
  call void @llvm.lifetime.start.p0(i64 8, ptr nonnull %5) #43
  store ptr null, ptr %5, align 8, !tbaa !29
  %7 = load ptr, ptr %2, align 8, !tbaa !18
  %8 = tail call ptr @sqlite3_value_text(ptr noundef %7) #43
  %9 = getelementptr inbounds nuw i8, ptr %2, i64 8
  %10 = load ptr, ptr %9, align 8, !tbaa !18
  %11 = tail call ptr @sqlite3_value_text(ptr noundef %10) #43
  %12 = getelementptr inbounds nuw i8, ptr %2, i64 16
  %13 = load ptr, ptr %12, align 8, !tbaa !18
  %14 = tail call ptr @sqlite3_value_text(ptr noundef %13) #43
  %15 = getelementptr inbounds nuw i8, ptr %2, i64 24
  %16 = load ptr, ptr %15, align 8, !tbaa !18
  %17 = tail call ptr @sqlite3_value_text(ptr noundef %16) #43
  tail call void @sqlite3_result_text(ptr noundef %0, ptr noundef nonnull @.str.44, i32 noundef -1, ptr noundef null) #43
  %18 = call i32 @sqlite3_table_column_metadata(ptr noundef %6, ptr noundef nonnull @.str.45, ptr noundef %8, ptr noundef %11, ptr noundef null, ptr noundef nonnull %4, ptr noundef null, ptr noundef null, ptr noundef null) #43
  %19 = icmp eq i32 %18, 0
  br i1 %19, label %20, label %.critedge

20:                                               ; preds = %3
  %21 = call i32 @sqlite3_table_column_metadata(ptr noundef %6, ptr noundef nonnull @.str.45, ptr noundef %14, ptr noundef %17, ptr noundef null, ptr noundef nonnull %5, ptr noundef null, ptr noundef null, ptr noundef null) #43
  %22 = icmp eq i32 %21, 0
  br i1 %22, label %23, label %.critedge

23:                                               ; preds = %20
  %24 = load ptr, ptr %4, align 8, !tbaa !29
  %25 = load ptr, ptr %5, align 8, !tbaa !29
  %26 = call i32 @sqlite3_stricmp(ptr noundef %24, ptr noundef %25) #43
  %.not = icmp eq i32 %26, 0
  br i1 %.not, label %.critedge, label %27

27:                                               ; preds = %23
  %28 = load ptr, ptr %4, align 8, !tbaa !29
  %29 = call ptr (ptr, ...) @sqlite3_mprintf(ptr noundef nonnull @.str.289, ptr noundef %28) #43
  call void @sqlite3_result_text(ptr noundef %0, ptr noundef %29, i32 noundef -1, ptr noundef nonnull inttoptr (i64 -1 to ptr)) #43
  call void @sqlite3_free(ptr noundef %29) #43
  br label %.critedge

.critedge:                                        ; preds = %3, %27, %23, %20
  call void @llvm.lifetime.end.p0(i64 8, ptr nonnull %5) #43
  call void @llvm.lifetime.end.p0(i64 8, ptr nonnull %4) #43
  ret void
}